; Function Attrs: mustprogress uwtable
define hidden void @_ZN6solver11updt_paramsERK10params_ref(ptr noundef nonnull align 8 dereferenceable(96) %0, ptr noundef nonnull align 8 dereferenceable(8) %1) unnamed_addr #3 align 2 personality ptr @__gxx_personality_v0 {
  %3 = alloca %class.symbol, align 8
  %4 = alloca %struct.solver_params, align 8
  %5 = getelementptr inbounds nuw i8, ptr %0, i64 80
  tail call void @_ZN10params_ref4copyERKS_(ptr noundef nonnull align 8 dereferenceable(8) %5, ptr noundef nonnull align 8 dereferenceable(8) %1)
  call void @llvm.lifetime.start.p0(i64 16, ptr nonnull %4) #25
  store ptr %5, ptr %4, align 8, !tbaa !188
  %6 = getelementptr inbounds nuw i8, ptr %4, i64 8
  call void @_ZN7gparams10get_moduleEPKc(ptr dead_on_unwind nonnull writable sret(%class.params_ref) align 8 %6, ptr noundef nonnull @.str.4)
  %7 = load ptr, ptr %4, align 8, !tbaa !190
  call void @llvm.lifetime.start.p0(i64 8, ptr nonnull %3) #25
  invoke void @_ZN6symbolC1EPKc(ptr noundef nonnull align 8 dereferenceable(8) %3, ptr noundef nonnull @.str.2)
          to label %.noexc unwind label %11

.noexc:                                           ; preds = %2
  %8 = invoke ptr @_ZNK10params_ref7get_symEPKcRKS_RK6symbol(ptr noundef nonnull align 8 dereferenceable(8) %7, ptr noundef nonnull @.str.7, ptr noundef nonnull align 8 dereferenceable(8) %6, ptr noundef nonnull align 8 dereferenceable(8) %3)
          to label %9 unwind label %11

9:                                                ; preds = %.noexc
  call void @llvm.lifetime.end.p0(i64 8, ptr nonnull %3) #25
  %10 = getelementptr inbounds nuw i8, ptr %0, i64 88
  store ptr %8, ptr %10, align 8, !tbaa !66
  call void @_ZN10params_refD1Ev(ptr noundef nonnull align 8 dereferenceable(8) %6) #25
  call void @llvm.lifetime.end.p0(i64 16, ptr nonnull %4) #25
  ret void

11:                                               ; preds = %.noexc, %2
  %12 = landingpad { ptr, i32 }
          cleanup
  call void @_ZN10params_refD1Ev(ptr noundef nonnull align 8 dereferenceable(8) %6) #25
  call void @llvm.lifetime.end.p0(i64 16, ptr nonnull %4) #25
  resume { ptr, i32 } %12
}